target datalayout = "e-m:e-p270:32:32-p271:32:32-p272:64:64-i64:64-i128:128-f80:128-n8:16:32:64-S128"
target triple = "x86_64-pc-linux-gnu"

%struct.ErrorData = type { i32, i8, i8, i8, i8, ptr, i32, ptr, ptr, ptr, i32, ptr, ptr, ptr, ptr, ptr, ptr, ptr, ptr, ptr, ptr, ptr, ptr, i32, i32, ptr, i32, ptr }
%struct.StringInfoData = type { ptr, i32, i32, i32 }

@.str.47 = private unnamed_addr constant [4 x i8] c"\0A%s\00", align 1

; Function Attrs: noinline nounwind uwtable
define internal void @set_backtrace(ptr noundef %0, i32 noundef %1) #6 {
  %3 = alloca ptr, align 8
  %4 = alloca i32, align 4
  %5 = alloca %struct.StringInfoData, align 8
  %6 = alloca [100 x ptr], align 16
  %7 = alloca i32, align 4
  %8 = alloca ptr, align 8
  %9 = alloca i32, align 4
  %10 = alloca i32, align 4
  store ptr %0, ptr %3, align 8
  store i32 %1, ptr %4, align 4
  call void @llvm.lifetime.start.p0(i64 24, ptr %5) #16
  call void @initStringInfo(ptr noundef %5)
  call void @llvm.lifetime.start.p0(i64 800, ptr %6) #16
  call void @llvm.lifetime.start.p0(i64 4, ptr %7) #16
  call void @llvm.lifetime.start.p0(i64 8, ptr %8) #16
  %11 = getelementptr inbounds [100 x ptr], ptr %6, i64 0, i64 0
  %12 = call i32 @backtrace(ptr noundef %11, i32 noundef 100)
  store i32 %12, ptr %7, align 4
  %13 = getelementptr inbounds [100 x ptr], ptr %6, i64 0, i64 0
  %14 = load i32, ptr %7, align 4
  %15 = call ptr @backtrace_symbols(ptr noundef %13, i32 noundef %14) #16
  store ptr %15, ptr %8, align 8
  %16 = load ptr, ptr %8, align 8
  %17 = icmp eq ptr %16, null
  br i1 %17, label %18, label %19

18:                                               ; preds = %2
  store i32 1, ptr %9, align 4
  br label %37

19:                                               ; preds = %2
  call void @llvm.lifetime.start.p0(i64 4, ptr %10) #16
  %20 = load i32, ptr %4, align 4
  store i32 %20, ptr %10, align 4
  br label %21

21:                                               ; preds = %32, %19
  %22 = load i32, ptr %10, align 4
  %23 = load i32, ptr %7, align 4
  %24 = icmp slt i32 %22, %23
  br i1 %24, label %26, label %25

25:                                               ; preds = %21
  store i32 2, ptr %9, align 4
  call void @llvm.lifetime.end.p0(i64 4, ptr %10) #16
  br label %35

26:                                               ; preds = %21
  %27 = load ptr, ptr %8, align 8
  %28 = load i32, ptr %10, align 4
  %29 = sext i32 %28 to i64
  %30 = getelementptr inbounds ptr, ptr %27, i64 %29
  %31 = load ptr, ptr %30, align 8
  call void (ptr, ptr, ...) @appendStringInfo(ptr noundef %5, ptr noundef @.str.47, ptr noundef %31)
  br label %32

32:                                               ; preds = %26
  %33 = load i32, ptr %10, align 4
  %34 = add i32 %33, 1
  store i32 %34, ptr %10, align 4
  br label %21, !llvm.loop !9

35:                                               ; preds = %25
  %36 = load ptr, ptr %8, align 8
  call void @free(ptr noundef %36) #16
  store i32 0, ptr %9, align 4
  br label %37

37:                                               ; preds = %35, %18
  call void @llvm.lifetime.end.p0(i64 8, ptr %8) #16
  call void @llvm.lifetime.end.p0(i64 4, ptr %7) #16
  call void @llvm.lifetime.end.p0(i64 800, ptr %6) #16
  %38 = load i32, ptr %9, align 4
  switch i32 %38, label %44 [
    i32 0, label %39
  ]

39:                                               ; preds = %37
  %40 = getelementptr inbounds nuw %struct.StringInfoData, ptr %5, i32 0, i32 0
  %41 = load ptr, ptr %40, align 8
  %42 = load ptr, ptr %3, align 8
  %43 = getelementptr inbounds nuw %struct.ErrorData, ptr %42, i32 0, i32 16
  store ptr %41, ptr %43, align 8
  store i32 0, ptr %9, align 4
  br label %44

44:                                               ; preds = %39, %37
  call void @llvm.lifetime.end.p0(i64 24, ptr %5) #16
  %45 = load i32, ptr %9, align 4
  switch i32 %45, label %47 [
    i32 0, label %46
    i32 1, label %46
  ]

46:                                               ; preds = %44, %44
  ret void

47:                                               ; preds = %44
  unreachable
}