; Function Attrs: noinline nounwind uwtable
define internal fastcc void @set_backtrace(ptr noundef writeonly captures(none) %0, i32 noundef range(i32 1, 3) %1) unnamed_addr #7 {
  %3 = alloca %struct.StringInfoData, align 8
  %4 = alloca [100 x ptr], align 16
  call void @llvm.lifetime.start.p0(i64 24, ptr nonnull %3) #32
  call void @initStringInfo(ptr noundef nonnull %3) #32
  call void @llvm.lifetime.start.p0(i64 800, ptr nonnull %4) #32
  %5 = call i32 @backtrace(ptr noundef nonnull %4, i32 noundef 100) #32
  %6 = call ptr @backtrace_symbols(ptr noundef nonnull %4, i32 noundef %5) #32
  %.not = icmp eq ptr %6, null
  br i1 %.not, label %.critedge, label %.preheader

.preheader:                                       ; preds = %2
  %7 = icmp slt i32 %1, %5
  br i1 %7, label %.lr.ph.preheader, label %._crit_edge

.lr.ph.preheader:                                 ; preds = %.preheader
  %8 = zext nneg i32 %1 to i64
  %wide.trip.count = zext nneg i32 %5 to i64
  br label %.lr.ph

.lr.ph:                                           ; preds = %.lr.ph.preheader, %.lr.ph
  %indvars.iv = phi i64 [ %8, %.lr.ph.preheader ], [ %indvars.iv.next, %.lr.ph ]
  %9 = getelementptr inbounds nuw ptr, ptr %6, i64 %indvars.iv
  %10 = load ptr, ptr %9, align 8
  call void (ptr, ptr, ...) @appendStringInfo(ptr noundef nonnull %3, ptr noundef nonnull @.str.47, ptr noundef %10) #32
  %indvars.iv.next = add nuw nsw i64 %indvars.iv, 1
  %exitcond.not = icmp eq i64 %indvars.iv.next, %wide.trip.count
  br i1 %exitcond.not, label %._crit_edge, label %.lr.ph, !llvm.loop !11

._crit_edge:                                      ; preds = %.lr.ph, %.preheader
  call void @free(ptr noundef nonnull %6) #32
  call void @llvm.lifetime.end.p0(i64 800, ptr nonnull %4) #32
  %11 = load ptr, ptr %3, align 8
  %12 = getelementptr inbounds nuw i8, ptr %0, i64 96
  store ptr %11, ptr %12, align 8
  br label %13

.critedge:                                        ; preds = %2
  call void @llvm.lifetime.end.p0(i64 800, ptr nonnull %4) #32
  br label %13

13:                                               ; preds = %.critedge, %._crit_edge
  call void @llvm.lifetime.end.p0(i64 24, ptr nonnull %3) #32
  ret void
}